target datalayout = "e-m:e-p270:32:32-p271:32:32-p272:64:64-i64:64-i128:128-f80:128-n8:16:32:64-S128"
target triple = "x86_64-pc-linux-gnu"

; Function Attrs: nounwind uwtable
define hidden ptr @d2i_PKCS12_fp(ptr noundef %0, ptr noundef %1) #0 {
  %3 = alloca ptr, align 8
  %4 = alloca ptr, align 8
  %5 = alloca ptr, align 8
  %6 = alloca ptr, align 8
  %7 = alloca ptr, align 8
  %8 = alloca i32, align 4
  store ptr %0, ptr %4, align 8, !tbaa !91
  store ptr %1, ptr %5, align 8, !tbaa !77
  call void @llvm.lifetime.start.p0(i64 8, ptr %6) #8
  call void @llvm.lifetime.start.p0(i64 8, ptr %7) #8
  %9 = load ptr, ptr %4, align 8, !tbaa !91
  %10 = call ptr @BIO_new_fp(ptr noundef %9, i32 noundef 0)
  store ptr %10, ptr %6, align 8, !tbaa !84
  %11 = load ptr, ptr %6, align 8, !tbaa !84
  %12 = icmp ne ptr %11, null
  br i1 %12, label %14, label %13

13:                                               ; preds = %2
  store ptr null, ptr %3, align 8
  store i32 1, ptr %8, align 4
  br label %21

14:                                               ; preds = %2
  %15 = load ptr, ptr %6, align 8, !tbaa !84
  %16 = load ptr, ptr %5, align 8, !tbaa !77
  %17 = call ptr @d2i_PKCS12_bio(ptr noundef %15, ptr noundef %16)
  store ptr %17, ptr %7, align 8, !tbaa !79
  %18 = load ptr, ptr %6, align 8, !tbaa !84
  %19 = call i32 @BIO_free(ptr noundef %18)
  %20 = load ptr, ptr %7, align 8, !tbaa !79
  store ptr %20, ptr %3, align 8
  store i32 1, ptr %8, align 4
  br label %21

21:                                               ; preds = %14, %13
  call void @llvm.lifetime.end.p0(i64 8, ptr %7) #8
  call void @llvm.lifetime.end.p0(i64 8, ptr %6) #8
  %22 = load ptr, ptr %3, align 8
  ret ptr %22
}