; Function Attrs: nounwind uwtable
define hidden noundef ptr @d2i_PKCS12_fp(ptr noundef %0, ptr noundef captures(address_is_null) %1) local_unnamed_addr #0 {
  %3 = tail call ptr @BIO_new_fp(ptr noundef %0, i32 noundef 0) #12
  %.not = icmp eq ptr %3, null
  br i1 %.not, label %7, label %4

4:                                                ; preds = %2
  %5 = tail call ptr @d2i_PKCS12_bio(ptr noundef nonnull %3, ptr noundef %1)
  %6 = tail call i32 @BIO_free(ptr noundef nonnull %3) #12
  br label %7

7:                                                ; preds = %2, %4
  %.0 = phi ptr [ %5, %4 ], [ null, %2 ]
  ret ptr %.0
}